target datalayout = "e-m:e-p270:32:32-p271:32:32-p272:64:64-i64:64-i128:128-f80:128-n8:16:32:64-S128"
target triple = "x86_64-pc-linux-gnu"

%struct._lv_obj_t = type { ptr, ptr, ptr, ptr, ptr, %struct.lv_area_t, i32, i16, i16 }
%struct.lv_area_t = type { i32, i32, i32, i32 }
%struct._lv_obj_spec_attr_t = type { ptr, ptr, %struct.lv_event_list_t, %struct.lv_point_t, i32, i32, i16, i16 }
%struct.lv_event_list_t = type { %struct._lv_array_t, i8 }
%struct._lv_array_t = type { ptr, i32, i32, i32, i8 }
%struct.lv_point_t = type { i32, i32 }
%union.lv_style_value_t = type { ptr }

; Function Attrs: inlinehint nounwind uwtable
define internal i32 @lv_obj_get_style_base_dir(ptr noundef %0, i32 noundef %1) #3 {
  %3 = alloca ptr, align 8
  %4 = alloca i32, align 4
  %5 = alloca %union.lv_style_value_t, align 8
  store ptr %0, ptr %3, align 8, !tbaa !3
  store i32 %1, ptr %4, align 4, !tbaa !7
  call void @llvm.lifetime.start.p0(i64 8, ptr %5) #5
  %6 = load ptr, ptr %3, align 8, !tbaa !3
  %7 = load i32, ptr %4, align 4, !tbaa !7
  %8 = call ptr @lv_obj_get_style_prop(ptr noundef %6, i32 noundef %7, i8 noundef zeroext 39)
  %9 = getelementptr inbounds nuw %union.lv_style_value_t, ptr %5, i32 0, i32 0
  store ptr %8, ptr %9, align 8
  %10 = load i32, ptr %5, align 8, !tbaa !24
  call void @llvm.lifetime.end.p0(i64 8, ptr %5) #5
  ret i32 %10
}

; Function Attrs: nounwind uwtable
define i32 @lv_obj_get_scroll_snap_x(ptr noundef %0) #0 {
  %2 = alloca i32, align 4
  %3 = alloca ptr, align 8
  store ptr %0, ptr %3, align 8, !tbaa !3
  %4 = load ptr, ptr %3, align 8, !tbaa !3
  %5 = getelementptr inbounds nuw %struct._lv_obj_t, ptr %4, i32 0, i32 2
  %6 = load ptr, ptr %5, align 8, !tbaa !9
  %7 = icmp ne ptr %6, null
  br i1 %7, label %8, label %17

8:                                                ; preds = %1
  %9 = load ptr, ptr %3, align 8, !tbaa !3
  %10 = getelementptr inbounds nuw %struct._lv_obj_t, ptr %9, i32 0, i32 2
  %11 = load ptr, ptr %10, align 8, !tbaa !9
  %12 = getelementptr inbounds nuw %struct._lv_obj_spec_attr_t, ptr %11, i32 0, i32 7
  %13 = load i16, ptr %12, align 2
  %14 = lshr i16 %13, 2
  %15 = and i16 %14, 3
  %16 = zext i16 %15 to i32
  store i32 %16, ptr %2, align 4
  br label %18

17:                                               ; preds = %1
  store i32 0, ptr %2, align 4
  br label %18

18:                                               ; preds = %17, %8
  %19 = load i32, ptr %2, align 4
  ret i32 %19
}

; Function Attrs: nounwind uwtable
define i32 @lv_obj_get_scroll_top(ptr noundef %0) #0 {
  %2 = alloca i32, align 4
  %3 = alloca ptr, align 8
  store ptr %0, ptr %3, align 8, !tbaa !3
  %4 = load ptr, ptr %3, align 8, !tbaa !3
  %5 = getelementptr inbounds nuw %struct._lv_obj_t, ptr %4, i32 0, i32 2
  %6 = load ptr, ptr %5, align 8, !tbaa !9
  %7 = icmp eq ptr %6, null
  br i1 %7, label %8, label %9

8:                                                ; preds = %1
  store i32 0, ptr %2, align 4
  br label %17

9:                                                ; preds = %1
  %10 = load ptr, ptr %3, align 8, !tbaa !3
  %11 = getelementptr inbounds nuw %struct._lv_obj_t, ptr %10, i32 0, i32 2
  %12 = load ptr, ptr %11, align 8, !tbaa !9
  %13 = getelementptr inbounds nuw %struct._lv_obj_spec_attr_t, ptr %12, i32 0, i32 3
  %14 = getelementptr inbounds nuw %struct.lv_point_t, ptr %13, i32 0, i32 1
  %15 = load i32, ptr %14, align 4, !tbaa !19
  %16 = sub nsw i32 0, %15
  store i32 %16, ptr %2, align 4
  br label %17

17:                                               ; preds = %9, %8
  %18 = load i32, ptr %2, align 4
  ret i32 %18
}

; Function Attrs: nounwind uwtable
define i32 @lv_obj_get_scroll_snap_y(ptr noundef %0) #0 {
  %2 = alloca i32, align 4
  %3 = alloca ptr, align 8
  store ptr %0, ptr %3, align 8, !tbaa !3
  %4 = load ptr, ptr %3, align 8, !tbaa !3
  %5 = getelementptr inbounds nuw %struct._lv_obj_t, ptr %4, i32 0, i32 2
  %6 = load ptr, ptr %5, align 8, !tbaa !9
  %7 = icmp ne ptr %6, null
  br i1 %7, label %8, label %17

8:                                                ; preds = %1
  %9 = load ptr, ptr %3, align 8, !tbaa !3
  %10 = getelementptr inbounds nuw %struct._lv_obj_t, ptr %9, i32 0, i32 2
  %11 = load ptr, ptr %10, align 8, !tbaa !9
  %12 = getelementptr inbounds nuw %struct._lv_obj_spec_attr_t, ptr %11, i32 0, i32 7
  %13 = load i16, ptr %12, align 2
  %14 = lshr i16 %13, 4
  %15 = and i16 %14, 3
  %16 = zext i16 %15 to i32
  store i32 %16, ptr %2, align 4
  br label %18

17:                                               ; preds = %1
  store i32 0, ptr %2, align 4
  br label %18

18:                                               ; preds = %17, %8
  %19 = load i32, ptr %2, align 4
  ret i32 %19
}

; Function Attrs: nounwind uwtable
define void @lv_obj_readjust_scroll(ptr noundef %0, i32 noundef %1) #0 {
  %3 = alloca ptr, align 8
  %4 = alloca i32, align 4
  %5 = alloca i32, align 4
  %6 = alloca i32, align 4
  %7 = alloca i32, align 4
  %8 = alloca i32, align 4
  store ptr %0, ptr %3, align 8, !tbaa !3
  store i32 %1, ptr %4, align 4, !tbaa !7
  %9 = load ptr, ptr %3, align 8, !tbaa !3
  %10 = call i32 @lv_obj_get_scroll_snap_y(ptr noundef %9)
  %11 = icmp eq i32 %10, 0
  br i1 %11, label %12, label %38

12:                                               ; preds = %2
  call void @llvm.lifetime.start.p0(i64 4, ptr %5) #5
  %13 = load ptr, ptr %3, align 8, !tbaa !3
  %14 = call i32 @lv_obj_get_scroll_top(ptr noundef %13)
  store i32 %14, ptr %5, align 4, !tbaa !7
  call void @llvm.lifetime.start.p0(i64 4, ptr %6) #5
  %15 = load ptr, ptr %3, align 8, !tbaa !3
  %16 = call i32 @lv_obj_get_scroll_bottom(ptr noundef %15)
  store i32 %16, ptr %6, align 4, !tbaa !7
  %17 = load i32, ptr %6, align 4, !tbaa !7
  %18 = icmp slt i32 %17, 0
  br i1 %18, label %19, label %37

19:                                               ; preds = %12
  %20 = load i32, ptr %5, align 4, !tbaa !7
  %21 = icmp sgt i32 %20, 0
  br i1 %21, label %22, label %37

22:                                               ; preds = %19
  %23 = load i32, ptr %5, align 4, !tbaa !7
  %24 = load i32, ptr %6, align 4, !tbaa !7
  %25 = sub nsw i32 0, %24
  %26 = icmp slt i32 %23, %25
  br i1 %26, label %27, label %29

27:                                               ; preds = %22
  %28 = load i32, ptr %5, align 4, !tbaa !7
  br label %32

29:                                               ; preds = %22
  %30 = load i32, ptr %6, align 4, !tbaa !7
  %31 = sub nsw i32 0, %30
  br label %32

32:                                               ; preds = %29, %27
  %33 = phi i32 [ %28, %27 ], [ %31, %29 ]
  store i32 %33, ptr %6, align 4, !tbaa !7
  %34 = load ptr, ptr %3, align 8, !tbaa !3
  %35 = load i32, ptr %6, align 4, !tbaa !7
  %36 = load i32, ptr %4, align 4, !tbaa !7
  call void @lv_obj_scroll_by(ptr noundef %34, i32 noundef 0, i32 noundef %35, i32 noundef %36)
  br label %37

37:                                               ; preds = %32, %19, %12
  call void @llvm.lifetime.end.p0(i64 4, ptr %6) #5
  call void @llvm.lifetime.end.p0(i64 4, ptr %5) #5
  br label %38

38:                                               ; preds = %37, %2
  %39 = load ptr, ptr %3, align 8, !tbaa !3
  %40 = call i32 @lv_obj_get_scroll_snap_x(ptr noundef %39)
  %41 = icmp eq i32 %40, 0
  br i1 %41, label %42, label %95

42:                                               ; preds = %38
  call void @llvm.lifetime.start.p0(i64 4, ptr %7) #5
  %43 = load ptr, ptr %3, align 8, !tbaa !3
  %44 = call i32 @lv_obj_get_scroll_left(ptr noundef %43)
  store i32 %44, ptr %7, align 4, !tbaa !7
  call void @llvm.lifetime.start.p0(i64 4, ptr %8) #5
  %45 = load ptr, ptr %3, align 8, !tbaa !3
  %46 = call i32 @lv_obj_get_scroll_right(ptr noundef %45)
  store i32 %46, ptr %8, align 4, !tbaa !7
  %47 = load ptr, ptr %3, align 8, !tbaa !3
  %48 = call i32 @lv_obj_get_style_base_dir(ptr noundef %47, i32 noundef 0)
  %49 = icmp ne i32 %48, 1
  br i1 %49, label %50, label %72

50:                                               ; preds = %42
  %51 = load i32, ptr %8, align 4, !tbaa !7
  %52 = icmp slt i32 %51, 0
  br i1 %52, label %53, label %71

53:                                               ; preds = %50
  %54 = load i32, ptr %7, align 4, !tbaa !7
  %55 = icmp sgt i32 %54, 0
  br i1 %55, label %56, label %71

56:                                               ; preds = %53
  %57 = load i32, ptr %7, align 4, !tbaa !7
  %58 = load i32, ptr %8, align 4, !tbaa !7
  %59 = sub nsw i32 0, %58
  %60 = icmp slt i32 %57, %59
  br i1 %60, label %61, label %63

61:                                               ; preds = %56
  %62 = load i32, ptr %7, align 4, !tbaa !7
  br label %66

63:                                               ; preds = %56
  %64 = load i32, ptr %8, align 4, !tbaa !7
  %65 = sub nsw i32 0, %64
  br label %66

66:                                               ; preds = %63, %61
  %67 = phi i32 [ %62, %61 ], [ %65, %63 ]
  store i32 %67, ptr %8, align 4, !tbaa !7
  %68 = load ptr, ptr %3, align 8, !tbaa !3
  %69 = load i32, ptr %8, align 4, !tbaa !7
  %70 = load i32, ptr %4, align 4, !tbaa !7
  call void @lv_obj_scroll_by(ptr noundef %68, i32 noundef %69, i32 noundef 0, i32 noundef %70)
  br label %71

71:                                               ; preds = %66, %53, %50
  br label %94

72:                                               ; preds = %42
  %73 = load i32, ptr %7, align 4, !tbaa !7
  %74 = icmp slt i32 %73, 0
  br i1 %74, label %75, label %93

75:                                               ; preds = %72
  %76 = load i32, ptr %8, align 4, !tbaa !7
  %77 = icmp sgt i32 %76, 0
  br i1 %77, label %78, label %93

78:                                               ; preds = %75
  %79 = load i32, ptr %8, align 4, !tbaa !7
  %80 = load i32, ptr %7, align 4, !tbaa !7
  %81 = sub nsw i32 0, %80
  %82 = icmp slt i32 %79, %81
  br i1 %82, label %83, label %85

83:                                               ; preds = %78
  %84 = load i32, ptr %8, align 4, !tbaa !7
  br label %88

85:                                               ; preds = %78
  %86 = load i32, ptr %7, align 4, !tbaa !7
  %87 = sub nsw i32 0, %86
  br label %88

88:                                               ; preds = %85, %83
  %89 = phi i32 [ %84, %83 ], [ %87, %85 ]
  store i32 %89, ptr %8, align 4, !tbaa !7
  %90 = load ptr, ptr %3, align 8, !tbaa !3
  %91 = load i32, ptr %7, align 4, !tbaa !7
  %92 = load i32, ptr %4, align 4, !tbaa !7
  call void @lv_obj_scroll_by(ptr noundef %90, i32 noundef %91, i32 noundef 0, i32 noundef %92)
  br label %93

93:                                               ; preds = %88, %75, %72
  br label %94

94:                                               ; preds = %93, %71
  call void @llvm.lifetime.end.p0(i64 4, ptr %8) #5
  call void @llvm.lifetime.end.p0(i64 4, ptr %7) #5
  br label %95

95:                                               ; preds = %94, %38
  ret void
}