; Function Attrs: nounwind uwtable
define void @lv_obj_readjust_scroll(ptr noundef %0, i32 noundef %1) local_unnamed_addr #0 {
  %3 = getelementptr inbounds nuw i8, ptr %0, i64 16
  %4 = load ptr, ptr %3, align 8, !tbaa !3
  %.not.i = icmp eq ptr %4, null
  br i1 %.not.i, label %lv_obj_get_scroll_top.exit, label %lv_obj_get_scroll_snap_y.exit

lv_obj_get_scroll_snap_y.exit:                    ; preds = %2
  %5 = getelementptr inbounds nuw i8, ptr %4, i64 66
  %6 = load i16, ptr %5, align 2
  %7 = and i16 %6, 48
  %8 = icmp eq i16 %7, 0
  br i1 %8, label %9, label %19

9:                                                ; preds = %lv_obj_get_scroll_snap_y.exit
  %10 = getelementptr inbounds nuw i8, ptr %4, i64 52
  %11 = load i32, ptr %10, align 4, !tbaa !17
  %12 = sub nsw i32 0, %11
  br label %lv_obj_get_scroll_top.exit

lv_obj_get_scroll_top.exit:                       ; preds = %2, %9
  %.0.i42 = phi i32 [ %12, %9 ], [ 0, %2 ]
  %13 = tail call i32 @lv_obj_get_scroll_bottom(ptr noundef nonnull %0)
  %14 = icmp slt i32 %13, 0
  %15 = icmp sgt i32 %.0.i42, 0
  %or.cond = select i1 %14, i1 %15, i1 false
  br i1 %or.cond, label %16, label %19

16:                                               ; preds = %lv_obj_get_scroll_top.exit
  %17 = sub nsw i32 0, %13
  %18 = tail call i32 @llvm.umin.i32(i32 %.0.i42, i32 %17)
  tail call void @lv_obj_scroll_by(ptr noundef nonnull %0, i32 noundef 0, i32 noundef %18, i32 noundef %1)
  br label %19

19:                                               ; preds = %lv_obj_get_scroll_top.exit, %16, %lv_obj_get_scroll_snap_y.exit
  %20 = load ptr, ptr %3, align 8, !tbaa !3
  %.not.i43 = icmp eq ptr %20, null
  br i1 %.not.i43, label %lv_obj_get_scroll_snap_x.exit.thread, label %lv_obj_get_scroll_snap_x.exit

lv_obj_get_scroll_snap_x.exit:                    ; preds = %19
  %21 = getelementptr inbounds nuw i8, ptr %20, i64 66
  %22 = load i16, ptr %21, align 2
  %23 = and i16 %22, 12
  %24 = icmp eq i16 %23, 0
  br i1 %24, label %lv_obj_get_scroll_snap_x.exit.thread, label %39

lv_obj_get_scroll_snap_x.exit.thread:             ; preds = %19, %lv_obj_get_scroll_snap_x.exit
  %25 = tail call i32 @lv_obj_get_scroll_left(ptr noundef nonnull %0)
  %26 = tail call i32 @lv_obj_get_scroll_right(ptr noundef nonnull %0)
  %27 = tail call ptr @lv_obj_get_style_prop(ptr noundef nonnull %0, i32 noundef 0, i8 noundef zeroext 39) #5
  %28 = ptrtoint ptr %27 to i64
  %29 = and i64 %28, 4294967295
  %.not = icmp eq i64 %29, 1
  br i1 %.not, label %36, label %30

30:                                               ; preds = %lv_obj_get_scroll_snap_x.exit.thread
  %31 = icmp slt i32 %26, 0
  %32 = icmp sgt i32 %25, 0
  %or.cond3 = select i1 %31, i1 %32, i1 false
  br i1 %or.cond3, label %33, label %39

33:                                               ; preds = %30
  %34 = sub nsw i32 0, %26
  %35 = tail call i32 @llvm.umin.i32(i32 %25, i32 %34)
  br label %.sink.split

36:                                               ; preds = %lv_obj_get_scroll_snap_x.exit.thread
  %37 = icmp slt i32 %25, 0
  %38 = icmp sgt i32 %26, 0
  %or.cond5 = select i1 %37, i1 %38, i1 false
  br i1 %or.cond5, label %.sink.split, label %39

.sink.split:                                      ; preds = %36, %33
  %.sink = phi i32 [ %35, %33 ], [ %25, %36 ]
  tail call void @lv_obj_scroll_by(ptr noundef nonnull %0, i32 noundef %.sink, i32 noundef 0, i32 noundef %1)
  br label %39

39:                                               ; preds = %.sink.split, %30, %36, %lv_obj_get_scroll_snap_x.exit
  ret void
}